target datalayout = "e-m:e-p270:32:32-p271:32:32-p272:64:64-i64:64-i128:128-f80:128-n8:16:32:64-S128"
target triple = "x86_64-pc-linux-gnu"

%struct.IndexScanDescData = type { ptr, ptr, ptr, i32, i32, ptr, ptr, i8, i8, i8, i8, i8, ptr, ptr, ptr, ptr, ptr, %struct.ItemPointerData, i8, ptr, i8, ptr, ptr, i8, ptr }
%struct.ItemPointerData = type { %struct.BlockIdData, i16 }
%struct.BlockIdData = type { i16, i16 }

; Function Attrs: nounwind uwtable
define dso_local void @brinrescan(ptr noundef %0, ptr noundef %1, i32 noundef %2, ptr noundef %3, i32 noundef %4) #0 {
  %6 = alloca ptr, align 8
  %7 = alloca ptr, align 8
  %8 = alloca i32, align 4
  %9 = alloca ptr, align 8
  %10 = alloca i32, align 4
  store ptr %0, ptr %6, align 8
  store ptr %1, ptr %7, align 8
  store i32 %2, ptr %8, align 4
  store ptr %3, ptr %9, align 8
  store i32 %4, ptr %10, align 4
  %11 = load ptr, ptr %7, align 8
  %12 = icmp ne ptr %11, null
  br i1 %12, label %13, label %28

13:                                               ; preds = %5
  %14 = load ptr, ptr %6, align 8
  %15 = getelementptr inbounds nuw %struct.IndexScanDescData, ptr %14, i32 0, i32 3
  %16 = load i32, ptr %15, align 8
  %17 = icmp sgt i32 %16, 0
  br i1 %17, label %18, label %28

18:                                               ; preds = %13
  %19 = load ptr, ptr %6, align 8
  %20 = getelementptr inbounds nuw %struct.IndexScanDescData, ptr %19, i32 0, i32 5
  %21 = load ptr, ptr %20, align 8
  %22 = load ptr, ptr %7, align 8
  %23 = load ptr, ptr %6, align 8
  %24 = getelementptr inbounds nuw %struct.IndexScanDescData, ptr %23, i32 0, i32 3
  %25 = load i32, ptr %24, align 8
  %26 = sext i32 %25 to i64
  %27 = mul i64 %26, 72
  call void @llvm.memcpy.p0.p0.i64(ptr align 8 %21, ptr align 8 %22, i64 %27, i1 false)
  br label %28

28:                                               ; preds = %18, %13, %5
  ret void
}