; Function Attrs: mustprogress nofree norecurse nosync nounwind willreturn memory(readwrite, inaccessiblemem: none) uwtable
define dso_local void @brinrescan(ptr noundef readonly captures(none) %0, ptr noundef readonly captures(address_is_null) %1, i32 %2, ptr readnone captures(none) %3, i32 %4) #3 {
  %.not = icmp eq ptr %1, null
  br i1 %.not, label %15, label %6

6:                                                ; preds = %5
  %7 = getelementptr inbounds nuw i8, ptr %0, i64 24
  %8 = load i32, ptr %7, align 8
  %9 = icmp sgt i32 %8, 0
  br i1 %9, label %10, label %15

10:                                               ; preds = %6
  %11 = getelementptr inbounds nuw i8, ptr %0, i64 32
  %12 = load ptr, ptr %11, align 8
  %13 = zext nneg i32 %8 to i64
  %14 = mul nuw nsw i64 %13, 72
  tail call void @llvm.memcpy.p0.p0.i64(ptr align 8 %12, ptr nonnull align 8 %1, i64 %14, i1 false)
  br label %15

15:                                               ; preds = %10, %6, %5
  ret void
}